target datalayout = "e-m:e-p270:32:32-p271:32:32-p272:64:64-i64:64-i128:128-f80:128-n8:16:32:64-S128"
target triple = "x86_64-pc-linux-gnu"

%struct.stbtt__buf = type { ptr, i32, i32 }

; Function Attrs: mustprogress uwtable
define internal void @_ZL15stbtt__buf_skipP10stbtt__bufi(ptr noundef %0, i32 noundef %1) #6 {
  %3 = alloca ptr, align 8
  %4 = alloca i32, align 4
  store ptr %0, ptr %3, align 8, !tbaa !119
  store i32 %1, ptr %4, align 4, !tbaa !21
  %5 = load ptr, ptr %3, align 8, !tbaa !119
  %6 = load ptr, ptr %3, align 8, !tbaa !119
  %7 = getelementptr inbounds nuw %struct.stbtt__buf, ptr %6, i32 0, i32 1
  %8 = load i32, ptr %7, align 8, !tbaa !608
  %9 = load i32, ptr %4, align 4, !tbaa !21
  %10 = add nsw i32 %8, %9
  call void @_ZL15stbtt__buf_seekP10stbtt__bufi(ptr noundef %5, i32 noundef %10)
  ret void
}

; Function Attrs: mustprogress nounwind uwtable
define internal noundef zeroext i8 @_ZL15stbtt__buf_get8P10stbtt__buf(ptr noundef %0) #3 {
  %2 = alloca i8, align 1
  %3 = alloca ptr, align 8
  store ptr %0, ptr %3, align 8, !tbaa !119
  %4 = load ptr, ptr %3, align 8, !tbaa !119
  %5 = getelementptr inbounds nuw %struct.stbtt__buf, ptr %4, i32 0, i32 1
  %6 = load i32, ptr %5, align 8, !tbaa !608
  %7 = load ptr, ptr %3, align 8, !tbaa !119
  %8 = getelementptr inbounds nuw %struct.stbtt__buf, ptr %7, i32 0, i32 2
  %9 = load i32, ptr %8, align 4, !tbaa !602
  %10 = icmp sge i32 %6, %9
  br i1 %10, label %11, label %12

11:                                               ; preds = %1
  store i8 0, ptr %2, align 1
  br label %23

12:                                               ; preds = %1
  %13 = load ptr, ptr %3, align 8, !tbaa !119
  %14 = getelementptr inbounds nuw %struct.stbtt__buf, ptr %13, i32 0, i32 0
  %15 = load ptr, ptr %14, align 8, !tbaa !607
  %16 = load ptr, ptr %3, align 8, !tbaa !119
  %17 = getelementptr inbounds nuw %struct.stbtt__buf, ptr %16, i32 0, i32 1
  %18 = load i32, ptr %17, align 8, !tbaa !608
  %19 = add nsw i32 %18, 1
  store i32 %19, ptr %17, align 8, !tbaa !608
  %20 = sext i32 %18 to i64
  %21 = getelementptr inbounds i8, ptr %15, i64 %20
  %22 = load i8, ptr %21, align 1, !tbaa !41
  store i8 %22, ptr %2, align 1
  br label %23

23:                                               ; preds = %12, %11
  %24 = load i8, ptr %2, align 1
  ret i8 %24
}

; Function Attrs: mustprogress nounwind uwtable
define internal noundef i32 @_ZL14stbtt__buf_getP10stbtt__bufi(ptr noundef %0, i32 noundef %1) #3 {
  %3 = alloca ptr, align 8
  %4 = alloca i32, align 4
  %5 = alloca i32, align 4
  %6 = alloca i32, align 4
  store ptr %0, ptr %3, align 8, !tbaa !119
  store i32 %1, ptr %4, align 4, !tbaa !21
  call void @llvm.lifetime.start.p0(i64 4, ptr %5) #17
  store i32 0, ptr %5, align 4, !tbaa !21
  call void @llvm.lifetime.start.p0(i64 4, ptr %6) #17
  br label %7

7:                                                ; preds = %2
  br label %8

8:                                                ; preds = %7
  br label %9

9:                                                ; preds = %8
  store i32 0, ptr %6, align 4, !tbaa !21
  br label %10

10:                                               ; preds = %21, %9
  %11 = load i32, ptr %6, align 4, !tbaa !21
  %12 = load i32, ptr %4, align 4, !tbaa !21
  %13 = icmp slt i32 %11, %12
  br i1 %13, label %14, label %24

14:                                               ; preds = %10
  %15 = load i32, ptr %5, align 4, !tbaa !21
  %16 = shl i32 %15, 8
  %17 = load ptr, ptr %3, align 8, !tbaa !119
  %18 = call noundef zeroext i8 @_ZL15stbtt__buf_get8P10stbtt__buf(ptr noundef %17)
  %19 = zext i8 %18 to i32
  %20 = or i32 %16, %19
  store i32 %20, ptr %5, align 4, !tbaa !21
  br label %21

21:                                               ; preds = %14
  %22 = load i32, ptr %6, align 4, !tbaa !21
  %23 = add nsw i32 %22, 1
  store i32 %23, ptr %6, align 4, !tbaa !21
  br label %10, !llvm.loop !611

24:                                               ; preds = %10
  %25 = load i32, ptr %5, align 4, !tbaa !21
  call void @llvm.lifetime.end.p0(i64 4, ptr %6) #17
  call void @llvm.lifetime.end.p0(i64 4, ptr %5) #17
  ret i32 %25
}

; Function Attrs: mustprogress uwtable
define internal { ptr, i64 } @_ZL20stbtt__cff_get_indexP10stbtt__buf(ptr noundef %0) #6 {
  %2 = alloca %struct.stbtt__buf, align 8
  %3 = alloca ptr, align 8
  %4 = alloca i32, align 4
  %5 = alloca i32, align 4
  %6 = alloca i32, align 4
  store ptr %0, ptr %3, align 8, !tbaa !119
  call void @llvm.lifetime.start.p0(i64 4, ptr %4) #17
  call void @llvm.lifetime.start.p0(i64 4, ptr %5) #17
  call void @llvm.lifetime.start.p0(i64 4, ptr %6) #17
  %7 = load ptr, ptr %3, align 8, !tbaa !119
  %8 = getelementptr inbounds nuw %struct.stbtt__buf, ptr %7, i32 0, i32 1
  %9 = load i32, ptr %8, align 8, !tbaa !608
  store i32 %9, ptr %5, align 4, !tbaa !21
  %10 = load ptr, ptr %3, align 8, !tbaa !119
  %11 = call noundef i32 @_ZL14stbtt__buf_getP10stbtt__bufi(ptr noundef %10, i32 noundef 2)
  store i32 %11, ptr %4, align 4, !tbaa !21
  %12 = load i32, ptr %4, align 4, !tbaa !21
  %13 = icmp ne i32 %12, 0
  br i1 %13, label %14, label %30

14:                                               ; preds = %1
  %15 = load ptr, ptr %3, align 8, !tbaa !119
  %16 = call noundef zeroext i8 @_ZL15stbtt__buf_get8P10stbtt__buf(ptr noundef %15)
  %17 = zext i8 %16 to i32
  store i32 %17, ptr %6, align 4, !tbaa !21
  br label %18

18:                                               ; preds = %14
  br label %19

19:                                               ; preds = %18
  br label %20

20:                                               ; preds = %19
  %21 = load ptr, ptr %3, align 8, !tbaa !119
  %22 = load i32, ptr %6, align 4, !tbaa !21
  %23 = load i32, ptr %4, align 4, !tbaa !21
  %24 = mul nsw i32 %22, %23
  call void @_ZL15stbtt__buf_skipP10stbtt__bufi(ptr noundef %21, i32 noundef %24)
  %25 = load ptr, ptr %3, align 8, !tbaa !119
  %26 = load ptr, ptr %3, align 8, !tbaa !119
  %27 = load i32, ptr %6, align 4, !tbaa !21
  %28 = call noundef i32 @_ZL14stbtt__buf_getP10stbtt__bufi(ptr noundef %26, i32 noundef %27)
  %29 = sub i32 %28, 1
  call void @_ZL15stbtt__buf_skipP10stbtt__bufi(ptr noundef %25, i32 noundef %29)
  br label %30

30:                                               ; preds = %20, %1
  %31 = load ptr, ptr %3, align 8, !tbaa !119
  %32 = load i32, ptr %5, align 4, !tbaa !21
  %33 = load ptr, ptr %3, align 8, !tbaa !119
  %34 = getelementptr inbounds nuw %struct.stbtt__buf, ptr %33, i32 0, i32 1
  %35 = load i32, ptr %34, align 8, !tbaa !608
  %36 = load i32, ptr %5, align 4, !tbaa !21
  %37 = sub nsw i32 %35, %36
  %38 = call { ptr, i64 } @_ZL16stbtt__buf_rangePK10stbtt__bufii(ptr noundef %31, i32 noundef %32, i32 noundef %37)
  %39 = getelementptr inbounds nuw { ptr, i64 }, ptr %2, i32 0, i32 0
  %40 = extractvalue { ptr, i64 } %38, 0
  store ptr %40, ptr %39, align 8
  %41 = getelementptr inbounds nuw { ptr, i64 }, ptr %2, i32 0, i32 1
  %42 = extractvalue { ptr, i64 } %38, 1
  store i64 %42, ptr %41, align 8
  call void @llvm.lifetime.end.p0(i64 4, ptr %6) #17
  call void @llvm.lifetime.end.p0(i64 4, ptr %5) #17
  call void @llvm.lifetime.end.p0(i64 4, ptr %4) #17
  %43 = load { ptr, i64 }, ptr %2, align 8
  ret { ptr, i64 } %43
}

; Function Attrs: mustprogress nounwind uwtable
define internal void @_ZL15stbtt__buf_seekP10stbtt__bufi(ptr noundef %0, i32 noundef %1) #3 {
  %3 = alloca ptr, align 8
  %4 = alloca i32, align 4
  store ptr %0, ptr %3, align 8, !tbaa !119
  store i32 %1, ptr %4, align 4, !tbaa !21
  br label %5

5:                                                ; preds = %2
  br label %6

6:                                                ; preds = %5
  %7 = load i32, ptr %4, align 4, !tbaa !21
  %8 = load ptr, ptr %3, align 8, !tbaa !119
  %9 = getelementptr inbounds nuw %struct.stbtt__buf, ptr %8, i32 0, i32 2
  %10 = load i32, ptr %9, align 4, !tbaa !602
  %11 = icmp sgt i32 %7, %10
  br i1 %11, label %15, label %12

12:                                               ; preds = %6
  %13 = load i32, ptr %4, align 4, !tbaa !21
  %14 = icmp slt i32 %13, 0
  br i1 %14, label %15, label %19

15:                                               ; preds = %12, %6
  %16 = load ptr, ptr %3, align 8, !tbaa !119
  %17 = getelementptr inbounds nuw %struct.stbtt__buf, ptr %16, i32 0, i32 2
  %18 = load i32, ptr %17, align 4, !tbaa !602
  br label %21

19:                                               ; preds = %12
  %20 = load i32, ptr %4, align 4, !tbaa !21
  br label %21

21:                                               ; preds = %19, %15
  %22 = phi i32 [ %18, %15 ], [ %20, %19 ]
  %23 = load ptr, ptr %3, align 8, !tbaa !119
  %24 = getelementptr inbounds nuw %struct.stbtt__buf, ptr %23, i32 0, i32 1
  store i32 %22, ptr %24, align 8, !tbaa !608
  ret void
}

; Function Attrs: mustprogress nounwind uwtable
define internal { ptr, i64 } @_ZL16stbtt__buf_rangePK10stbtt__bufii(ptr noundef %0, i32 noundef %1, i32 noundef %2) #3 {
  %4 = alloca %struct.stbtt__buf, align 8
  %5 = alloca ptr, align 8
  %6 = alloca i32, align 4
  %7 = alloca i32, align 4
  store ptr %0, ptr %5, align 8, !tbaa !119
  store i32 %1, ptr %6, align 4, !tbaa !21
  store i32 %2, ptr %7, align 4, !tbaa !21
  %8 = call { ptr, i64 } @_ZL14stbtt__new_bufPKvm(ptr noundef null, i64 noundef 0)
  %9 = getelementptr inbounds nuw { ptr, i64 }, ptr %4, i32 0, i32 0
  %10 = extractvalue { ptr, i64 } %8, 0
  store ptr %10, ptr %9, align 8
  %11 = getelementptr inbounds nuw { ptr, i64 }, ptr %4, i32 0, i32 1
  %12 = extractvalue { ptr, i64 } %8, 1
  store i64 %12, ptr %11, align 8
  %13 = load i32, ptr %6, align 4, !tbaa !21
  %14 = icmp slt i32 %13, 0
  br i1 %14, label %32, label %15

15:                                               ; preds = %3
  %16 = load i32, ptr %7, align 4, !tbaa !21
  %17 = icmp slt i32 %16, 0
  br i1 %17, label %32, label %18

18:                                               ; preds = %15
  %19 = load i32, ptr %6, align 4, !tbaa !21
  %20 = load ptr, ptr %5, align 8, !tbaa !119
  %21 = getelementptr inbounds nuw %struct.stbtt__buf, ptr %20, i32 0, i32 2
  %22 = load i32, ptr %21, align 4, !tbaa !602
  %23 = icmp sgt i32 %19, %22
  br i1 %23, label %32, label %24

24:                                               ; preds = %18
  %25 = load i32, ptr %7, align 4, !tbaa !21
  %26 = load ptr, ptr %5, align 8, !tbaa !119
  %27 = getelementptr inbounds nuw %struct.stbtt__buf, ptr %26, i32 0, i32 2
  %28 = load i32, ptr %27, align 4, !tbaa !602
  %29 = load i32, ptr %6, align 4, !tbaa !21
  %30 = sub nsw i32 %28, %29
  %31 = icmp sgt i32 %25, %30
  br i1 %31, label %32, label %33

32:                                               ; preds = %24, %18, %15, %3
  br label %43

33:                                               ; preds = %24
  %34 = load ptr, ptr %5, align 8, !tbaa !119
  %35 = getelementptr inbounds nuw %struct.stbtt__buf, ptr %34, i32 0, i32 0
  %36 = load ptr, ptr %35, align 8, !tbaa !607
  %37 = load i32, ptr %6, align 4, !tbaa !21
  %38 = sext i32 %37 to i64
  %39 = getelementptr inbounds i8, ptr %36, i64 %38
  %40 = getelementptr inbounds nuw %struct.stbtt__buf, ptr %4, i32 0, i32 0
  store ptr %39, ptr %40, align 8, !tbaa !607
  %41 = load i32, ptr %7, align 4, !tbaa !21
  %42 = getelementptr inbounds nuw %struct.stbtt__buf, ptr %4, i32 0, i32 2
  store i32 %41, ptr %42, align 4, !tbaa !602
  br label %43

43:                                               ; preds = %33, %32
  %44 = load { ptr, i64 }, ptr %4, align 8
  ret { ptr, i64 } %44
}

; Function Attrs: mustprogress nounwind uwtable
define internal { ptr, i64 } @_ZL14stbtt__new_bufPKvm(ptr noundef %0, i64 noundef %1) #3 {
  %3 = alloca %struct.stbtt__buf, align 8
  %4 = alloca ptr, align 8
  %5 = alloca i64, align 8
  store ptr %0, ptr %4, align 8, !tbaa !119
  store i64 %1, ptr %5, align 8, !tbaa !117
  br label %6

6:                                                ; preds = %2
  br label %7

7:                                                ; preds = %6
  %8 = load ptr, ptr %4, align 8, !tbaa !119
  %9 = getelementptr inbounds nuw %struct.stbtt__buf, ptr %3, i32 0, i32 0
  store ptr %8, ptr %9, align 8, !tbaa !607
  %10 = load i64, ptr %5, align 8, !tbaa !117
  %11 = trunc i64 %10 to i32
  %12 = getelementptr inbounds nuw %struct.stbtt__buf, ptr %3, i32 0, i32 2
  store i32 %11, ptr %12, align 4, !tbaa !602
  %13 = getelementptr inbounds nuw %struct.stbtt__buf, ptr %3, i32 0, i32 1
  store i32 0, ptr %13, align 8, !tbaa !608
  %14 = load { ptr, i64 }, ptr %3, align 8
  ret { ptr, i64 } %14
}

; Function Attrs: mustprogress uwtable
define internal { ptr, i64 } @_ZL16stbtt__get_subrs10stbtt__bufS_(ptr %0, i64 %1, ptr %2, i64 %3) #6 {
  %5 = alloca %struct.stbtt__buf, align 8
  %6 = alloca %struct.stbtt__buf, align 8
  %7 = alloca %struct.stbtt__buf, align 8
  %8 = alloca i32, align 4
  %9 = alloca [2 x i32], align 4
  %10 = alloca %struct.stbtt__buf, align 8
  %11 = alloca i32, align 4
  %12 = alloca %struct.stbtt__buf, align 8
  %13 = getelementptr inbounds nuw { ptr, i64 }, ptr %6, i32 0, i32 0
  store ptr %0, ptr %13, align 8
  %14 = getelementptr inbounds nuw { ptr, i64 }, ptr %6, i32 0, i32 1
  store i64 %1, ptr %14, align 8
  %15 = getelementptr inbounds nuw { ptr, i64 }, ptr %7, i32 0, i32 0
  store ptr %2, ptr %15, align 8
  %16 = getelementptr inbounds nuw { ptr, i64 }, ptr %7, i32 0, i32 1
  store i64 %3, ptr %16, align 8
  call void @llvm.lifetime.start.p0(i64 4, ptr %8) #17
  store i32 0, ptr %8, align 4, !tbaa !21
  call void @llvm.lifetime.start.p0(i64 8, ptr %9) #17
  call void @llvm.memset.p0.i64(ptr align 4 %9, i8 0, i64 8, i1 false)
  call void @llvm.lifetime.start.p0(i64 16, ptr %10) #17
  %17 = getelementptr inbounds [2 x i32], ptr %9, i64 0, i64 0
  call void @_ZL20stbtt__dict_get_intsP10stbtt__bufiiPj(ptr noundef %7, i32 noundef 18, i32 noundef 2, ptr noundef %17)
  %18 = getelementptr inbounds [2 x i32], ptr %9, i64 0, i64 1
  %19 = load i32, ptr %18, align 4, !tbaa !21
  %20 = icmp ne i32 %19, 0
  br i1 %20, label %21, label %25

21:                                               ; preds = %4
  %22 = getelementptr inbounds [2 x i32], ptr %9, i64 0, i64 0
  %23 = load i32, ptr %22, align 4, !tbaa !21
  %24 = icmp ne i32 %23, 0
  br i1 %24, label %31, label %25

25:                                               ; preds = %21, %4
  %26 = call { ptr, i64 } @_ZL14stbtt__new_bufPKvm(ptr noundef null, i64 noundef 0)
  %27 = getelementptr inbounds nuw { ptr, i64 }, ptr %5, i32 0, i32 0
  %28 = extractvalue { ptr, i64 } %26, 0
  store ptr %28, ptr %27, align 8
  %29 = getelementptr inbounds nuw { ptr, i64 }, ptr %5, i32 0, i32 1
  %30 = extractvalue { ptr, i64 } %26, 1
  store i64 %30, ptr %29, align 8
  store i32 1, ptr %11, align 4
  br label %59

31:                                               ; preds = %21
  call void @llvm.lifetime.start.p0(i64 16, ptr %12) #17
  %32 = getelementptr inbounds [2 x i32], ptr %9, i64 0, i64 1
  %33 = load i32, ptr %32, align 4, !tbaa !21
  %34 = getelementptr inbounds [2 x i32], ptr %9, i64 0, i64 0
  %35 = load i32, ptr %34, align 4, !tbaa !21
  %36 = call { ptr, i64 } @_ZL16stbtt__buf_rangePK10stbtt__bufii(ptr noundef %6, i32 noundef %33, i32 noundef %35)
  %37 = getelementptr inbounds nuw { ptr, i64 }, ptr %12, i32 0, i32 0
  %38 = extractvalue { ptr, i64 } %36, 0
  store ptr %38, ptr %37, align 8
  %39 = getelementptr inbounds nuw { ptr, i64 }, ptr %12, i32 0, i32 1
  %40 = extractvalue { ptr, i64 } %36, 1
  store i64 %40, ptr %39, align 8
  call void @llvm.memcpy.p0.p0.i64(ptr align 8 %10, ptr align 8 %12, i64 16, i1 false), !tbaa.struct !596
  call void @llvm.lifetime.end.p0(i64 16, ptr %12) #17
  call void @_ZL20stbtt__dict_get_intsP10stbtt__bufiiPj(ptr noundef %10, i32 noundef 19, i32 noundef 1, ptr noundef %8)
  %41 = load i32, ptr %8, align 4, !tbaa !21
  %42 = icmp ne i32 %41, 0
  br i1 %42, label %49, label %43

43:                                               ; preds = %31
  %44 = call { ptr, i64 } @_ZL14stbtt__new_bufPKvm(ptr noundef null, i64 noundef 0)
  %45 = getelementptr inbounds nuw { ptr, i64 }, ptr %5, i32 0, i32 0
  %46 = extractvalue { ptr, i64 } %44, 0
  store ptr %46, ptr %45, align 8
  %47 = getelementptr inbounds nuw { ptr, i64 }, ptr %5, i32 0, i32 1
  %48 = extractvalue { ptr, i64 } %44, 1
  store i64 %48, ptr %47, align 8
  store i32 1, ptr %11, align 4
  br label %59

49:                                               ; preds = %31
  %50 = getelementptr inbounds [2 x i32], ptr %9, i64 0, i64 1
  %51 = load i32, ptr %50, align 4, !tbaa !21
  %52 = load i32, ptr %8, align 4, !tbaa !21
  %53 = add i32 %51, %52
  call void @_ZL15stbtt__buf_seekP10stbtt__bufi(ptr noundef %6, i32 noundef %53)
  %54 = call { ptr, i64 } @_ZL20stbtt__cff_get_indexP10stbtt__buf(ptr noundef %6)
  %55 = getelementptr inbounds nuw { ptr, i64 }, ptr %5, i32 0, i32 0
  %56 = extractvalue { ptr, i64 } %54, 0
  store ptr %56, ptr %55, align 8
  %57 = getelementptr inbounds nuw { ptr, i64 }, ptr %5, i32 0, i32 1
  %58 = extractvalue { ptr, i64 } %54, 1
  store i64 %58, ptr %57, align 8
  store i32 1, ptr %11, align 4
  br label %59

59:                                               ; preds = %49, %43, %25
  call void @llvm.lifetime.end.p0(i64 16, ptr %10) #17
  call void @llvm.lifetime.end.p0(i64 8, ptr %9) #17
  call void @llvm.lifetime.end.p0(i64 4, ptr %8) #17
  %60 = load { ptr, i64 }, ptr %5, align 8
  ret { ptr, i64 } %60
}